target datalayout = "e-m:e-p270:32:32-p271:32:32-p272:64:64-i64:64-i128:128-f80:128-n8:16:32:64-S128"
target triple = "x86_64-pc-linux-gnu"

@__clewGetContextInfo = external global ptr, align 8

; Function Attrs: mustprogress uwtable
define dso_local i32 @b3OpenCLUtils_getNumDevices(ptr noundef %0) #0 {
  %2 = alloca ptr, align 8
  %3 = alloca i64, align 8
  %4 = alloca i32, align 4
  store ptr %0, ptr %2, align 8, !tbaa !23
  call void @llvm.lifetime.start.p0(i64 8, ptr %3) #9
  call void @llvm.lifetime.start.p0(i64 4, ptr %4) #9
  %5 = load ptr, ptr @__clewGetContextInfo, align 8, !tbaa !9
  %6 = load ptr, ptr %2, align 8, !tbaa !23
  %7 = call i32 %5(ptr noundef %6, i32 noundef 4225, i64 noundef 0, ptr noundef null, ptr noundef %3)
  %8 = load i64, ptr %3, align 8, !tbaa !10
  %9 = trunc i64 %8 to i32
  %10 = sext i32 %9 to i64
  %11 = udiv i64 %10, 8
  %12 = trunc i64 %11 to i32
  store i32 %12, ptr %4, align 4, !tbaa !12
  %13 = load i32, ptr %4, align 4, !tbaa !12
  call void @llvm.lifetime.end.p0(i64 4, ptr %4) #9
  call void @llvm.lifetime.end.p0(i64 8, ptr %3) #9
  ret i32 %13
}