; Function Attrs: mustprogress uwtable
define dso_local i32 @b3OpenCLUtils_getNumDevices(ptr noundef %0) local_unnamed_addr #0 {
  %2 = alloca i64, align 8
  call void @llvm.lifetime.start.p0(i64 8, ptr nonnull %2) #12
  %3 = load ptr, ptr @__clewGetContextInfo, align 8, !tbaa !8
  %4 = call i32 %3(ptr noundef %0, i32 noundef 4225, i64 noundef 0, ptr noundef null, ptr noundef nonnull %2)
  %5 = load i64, ptr %2, align 8, !tbaa !15
  %sext = shl i64 %5, 32
  %6 = ashr exact i64 %sext, 32
  %7 = lshr i64 %6, 3
  %8 = trunc i64 %7 to i32
  call void @llvm.lifetime.end.p0(i64 8, ptr nonnull %2) #12
  ret i32 %8
}